target datalayout = "e-m:e-p270:32:32-p271:32:32-p272:64:64-i64:64-i128:128-f80:128-n8:16:32:64-S128"
target triple = "x86_64-unknown-linux-gnu"

%"class.Imath_3_2::Matrix44" = type { [4 x [4 x float]] }
%"class.Imf_3_2::AcesInputFile::Data" = type <{ ptr, ptr, i64, i64, i32, i32, i8, [3 x i8], %"class.Imath_3_2::Matrix44", [4 x i8] }>
%"class.Imf_3_2::AcesInputFile" = type { ptr, ptr }

@_ZTVN7Imf_3_213AcesInputFileE = unnamed_addr constant { [4 x ptr] } { [4 x ptr] [ptr null, ptr @_ZTIN7Imf_3_213AcesInputFileE, ptr @_ZN7Imf_3_213AcesInputFileD1Ev, ptr @_ZN7Imf_3_213AcesInputFileD0Ev] }, align 8
@_ZN7Imf_3_213AcesInputFile4DataC1Ev = hidden unnamed_addr alias void (ptr), ptr @_ZN7Imf_3_213AcesInputFile4DataC2Ev

; Function Attrs: mustprogress uwtable
define void @_ZN7Imf_3_213AcesInputFileC2ERNS_7IStreamEi(ptr noundef nonnull align 8 dereferenceable(16) %this, ptr noundef nonnull align 8 dereferenceable(40) %is, i32 noundef %numThreads) unnamed_addr #4 align 2 personality ptr @__gxx_personality_v0 {
entry:
  %this.addr = alloca ptr, align 8
  %is.addr = alloca ptr, align 8
  %numThreads.addr = alloca i32, align 4
  %exn.slot = alloca ptr, align 8
  %ehselector.slot = alloca i32, align 4
  store ptr %this, ptr %this.addr, align 8
  store ptr %is, ptr %is.addr, align 8
  store i32 %numThreads, ptr %numThreads.addr, align 4
  %this1 = load ptr, ptr %this.addr, align 8
  store ptr getelementptr inbounds ({ [4 x ptr] }, ptr @_ZTVN7Imf_3_213AcesInputFileE, i32 0, i32 0, i32 2), ptr %this1, align 8
  %_data = getelementptr inbounds %"class.Imf_3_2::AcesInputFile", ptr %this1, i32 0, i32 1
  %call = call noalias noundef nonnull ptr @_Znwm(i64 noundef 112) #11
  invoke void @_ZN7Imf_3_213AcesInputFile4DataC1Ev(ptr noundef nonnull align 8 dereferenceable(108) %call)
          to label %invoke.cont unwind label %lpad

invoke.cont:                                      ; preds = %entry
  store ptr %call, ptr %_data, align 8
  %call2 = call noalias noundef nonnull ptr @_Znwm(i64 noundef 64) #11
  %0 = load ptr, ptr %is.addr, align 8
  %1 = load i32, ptr %numThreads.addr, align 4
  invoke void @_ZN7Imf_3_213RgbaInputFileC1ERNS_7IStreamEi(ptr noundef nonnull align 8 dereferenceable(64) %call2, ptr noundef nonnull align 8 dereferenceable(40) %0, i32 noundef %1)
          to label %invoke.cont4 unwind label %lpad3

invoke.cont4:                                     ; preds = %invoke.cont
  %_data5 = getelementptr inbounds %"class.Imf_3_2::AcesInputFile", ptr %this1, i32 0, i32 1
  %2 = load ptr, ptr %_data5, align 8
  %rgbaFile = getelementptr inbounds %"class.Imf_3_2::AcesInputFile::Data", ptr %2, i32 0, i32 0
  store ptr %call2, ptr %rgbaFile, align 8
  %_data6 = getelementptr inbounds %"class.Imf_3_2::AcesInputFile", ptr %this1, i32 0, i32 1
  %3 = load ptr, ptr %_data6, align 8
  call void @_ZN7Imf_3_213AcesInputFile4Data19initColorConversionEv(ptr noundef nonnull align 8 dereferenceable(108) %3)
  ret void

lpad:                                             ; preds = %entry
  %4 = landingpad { ptr, i32 }
          cleanup
  %5 = extractvalue { ptr, i32 } %4, 0
  store ptr %5, ptr %exn.slot, align 8
  %6 = extractvalue { ptr, i32 } %4, 1
  store i32 %6, ptr %ehselector.slot, align 4
  call void @_ZdlPv(ptr noundef %call) #12
  br label %eh.resume

lpad3:                                            ; preds = %invoke.cont
  %7 = landingpad { ptr, i32 }
          cleanup
  %8 = extractvalue { ptr, i32 } %7, 0
  store ptr %8, ptr %exn.slot, align 8
  %9 = extractvalue { ptr, i32 } %7, 1
  store i32 %9, ptr %ehselector.slot, align 4
  call void @_ZdlPv(ptr noundef %call2) #12
  br label %eh.resume

eh.resume:                                        ; preds = %lpad3, %lpad
  %exn = load ptr, ptr %exn.slot, align 8
  %sel = load i32, ptr %ehselector.slot, align 4
  %lpad.val = insertvalue { ptr, i32 } poison, ptr %exn, 0
  %lpad.val7 = insertvalue { ptr, i32 } %lpad.val, i32 %sel, 1
  resume { ptr, i32 } %lpad.val7
}