; Function Attrs: mustprogress uwtable
define void @_ZN7Imf_3_213AcesInputFileC2ERNS_7IStreamEi(ptr nocapture noundef nonnull align 8 dereferenceable(16) %this, ptr noundef nonnull align 8 dereferenceable(40) %is, i32 noundef %numThreads) unnamed_addr #3 align 2 personality ptr @__gxx_personality_v0 {
entry:
  store ptr getelementptr inbounds ({ [4 x ptr] }, ptr @_ZTVN7Imf_3_213AcesInputFileE, i64 0, i32 0, i64 2), ptr %this, align 8
  %_data = getelementptr inbounds i8, ptr %this, i64 8
  %call = tail call noalias noundef nonnull dereferenceable(112) ptr @_Znwm(i64 noundef 112) #14
  %fileToAces.i = getelementptr inbounds i8, ptr %call, i64 44
  tail call void @llvm.memset.p0.i64(ptr noundef nonnull align 8 dereferenceable(41) %call, i8 0, i64 41, i1 false)
  store float 1.000000e+00, ptr %fileToAces.i, align 4
  %arrayidx5.i.i = getelementptr inbounds i8, ptr %call, i64 48
  %arrayidx17.i.i = getelementptr inbounds i8, ptr %call, i64 64
  tail call void @llvm.memset.p0.i64(ptr noundef nonnull align 8 dereferenceable(16) %arrayidx5.i.i, i8 0, i64 16, i1 false)
  store float 1.000000e+00, ptr %arrayidx17.i.i, align 4
  %arrayidx20.i.i = getelementptr inbounds i8, ptr %call, i64 68
  %arrayidx32.i.i = getelementptr inbounds i8, ptr %call, i64 84
  tail call void @llvm.memset.p0.i64(ptr noundef nonnull align 4 dereferenceable(16) %arrayidx20.i.i, i8 0, i64 16, i1 false)
  store float 1.000000e+00, ptr %arrayidx32.i.i, align 4
  %arrayidx35.i.i = getelementptr inbounds i8, ptr %call, i64 88
  %arrayidx47.i.i = getelementptr inbounds i8, ptr %call, i64 104
  tail call void @llvm.memset.p0.i64(ptr noundef nonnull align 8 dereferenceable(16) %arrayidx35.i.i, i8 0, i64 16, i1 false)
  store float 1.000000e+00, ptr %arrayidx47.i.i, align 4
  store ptr %call, ptr %_data, align 8
  %call2 = tail call noalias noundef nonnull dereferenceable(64) ptr @_Znwm(i64 noundef 64) #14
  invoke void @_ZN7Imf_3_213RgbaInputFileC1ERNS_7IStreamEi(ptr noundef nonnull align 8 dereferenceable(64) %call2, ptr noundef nonnull align 8 dereferenceable(40) %is, i32 noundef %numThreads)
          to label %invoke.cont4 unwind label %lpad3

invoke.cont4:                                     ; preds = %entry
  %0 = load ptr, ptr %_data, align 8
  store ptr %call2, ptr %0, align 8
  %1 = load ptr, ptr %_data, align 8
  tail call void @_ZN7Imf_3_213AcesInputFile4Data19initColorConversionEv(ptr noundef nonnull align 8 dereferenceable(108) %1)
  ret void

lpad3:                                            ; preds = %entry
  %2 = landingpad { ptr, i32 }
          cleanup
  tail call void @_ZdlPv(ptr noundef nonnull %call2) #16
  resume { ptr, i32 } %2
}